; ModuleID = 'bench/openusd/original/singleton.cpp.ll'
source_filename = "bench/openusd/original/singleton.cpp.ll"
target datalayout = "e-m:e-p270:32:32-p271:32:32-p272:64:64-i64:64-i128:128-f80:128-n8:16:32:64-S128"
target triple = "x86_64-pc-linux-gnu"

@_ZN32pxrInternal_v0_24__pxrReserved__24Tf_SingletonPyGILDropperC1Ev = unnamed_addr alias void (ptr), ptr @_ZN32pxrInternal_v0_24__pxrReserved__24Tf_SingletonPyGILDropperC2Ev
@_ZN32pxrInternal_v0_24__pxrReserved__24Tf_SingletonPyGILDropperD1Ev = unnamed_addr alias void (ptr), ptr @_ZN32pxrInternal_v0_24__pxrReserved__24Tf_SingletonPyGILDropperD2Ev

; Function Attrs: mustprogress nofree norecurse nosync nounwind willreturn memory(none) uwtable
define void @_ZN32pxrInternal_v0_24__pxrReserved__24Tf_SingletonPyGILDropperC2Ev(ptr nocapture nonnull readnone align 1 %0) unnamed_addr #0 align 2 {
  ret void
}

; Function Attrs: mustprogress nofree norecurse nosync nounwind willreturn memory(none) uwtable
define void @_ZN32pxrInternal_v0_24__pxrReserved__24Tf_SingletonPyGILDropperD2Ev(ptr nocapture nonnull readnone align 1 %0) unnamed_addr #0 align 2 {
  ret void
}


!llvm.module.flags = !{!0, !1, !2, !3}

!0 = !{i32 1, !"wchar_size", i32 4}
!1 = !{i32 8, !"PIC Level", i32 2}
!2 = !{i32 7, !"uwtable", i32 2}
!3 = !{i32 7, !"frame-pointer", i32 2}
